target datalayout = "e-m:e-p270:32:32-p271:32:32-p272:64:64-i64:64-i128:128-f80:128-n8:16:32:64-S128"
target triple = "x86_64-pc-linux-gnu"

@OSD_ELEVATION_ASL = internal global ptr @.str.37, align 8
@OSD_ELEVATION_BSL = internal global ptr @.str.38, align 8
@.str.14 = private unnamed_addr constant [11 x i8] c"%.2f %s %s\00", align 1
@.str.15 = private unnamed_addr constant [2 x i8] c"m\00", align 1

; Function Attrs: nounwind uwtable
define ptr @dt_util_elevation_str(float noundef %0) #0 {
  %2 = alloca ptr, align 8
  %3 = alloca float, align 4
  %4 = alloca ptr, align 8
  %5 = alloca i32, align 4
  store float %0, ptr %3, align 4, !tbaa !45
  call void @llvm.lifetime.start.p0(i64 8, ptr %4) #18
  %6 = load ptr, ptr @OSD_ELEVATION_ASL, align 8, !tbaa !6
  store ptr %6, ptr %4, align 8, !tbaa !6
  %7 = load float, ptr %3, align 4, !tbaa !45
  %8 = call i1 @llvm.is.fpclass.f32(float %7, i32 3)
  br i1 %8, label %9, label %10

9:                                                ; preds = %1
  store ptr null, ptr %2, align 8
  store i32 1, ptr %5, align 4
  br label %24

10:                                               ; preds = %1
  %11 = load float, ptr %3, align 4, !tbaa !45
  %12 = fcmp reassoc nsz arcp contract afn olt float %11, 0.000000e+00
  br i1 %12, label %13, label %17

13:                                               ; preds = %10
  %14 = load float, ptr %3, align 4, !tbaa !45
  %15 = call reassoc nsz arcp contract afn float @llvm.fabs.f32(float %14)
  store float %15, ptr %3, align 4, !tbaa !45
  %16 = load ptr, ptr @OSD_ELEVATION_BSL, align 8, !tbaa !6
  store ptr %16, ptr %4, align 8, !tbaa !6
  br label %17

17:                                               ; preds = %13, %10
  %18 = load float, ptr %3, align 4, !tbaa !45
  %19 = fpext reassoc nsz arcp contract afn float %18 to double
  %20 = call ptr @dcgettext(ptr noundef null, ptr noundef @.str.15, i32 noundef 5) #18
  %21 = load ptr, ptr %4, align 8, !tbaa !6
  %22 = call ptr @dcgettext(ptr noundef null, ptr noundef %21, i32 noundef 5) #18
  %23 = call noalias ptr (ptr, ...) @g_strdup_printf(ptr noundef @.str.14, double noundef %19, ptr noundef %20, ptr noundef %22)
  store ptr %23, ptr %2, align 8
  store i32 1, ptr %5, align 4
  br label %24

24:                                               ; preds = %17, %9
  call void @llvm.lifetime.end.p0(i64 8, ptr %4) #18
  %25 = load ptr, ptr %2, align 8
  ret ptr %25
}