; Function Attrs: nounwind uwtable
define noalias ptr @dt_util_elevation_str(float noundef %0) local_unnamed_addr #0 {
  %2 = fcmp uno float %0, 0.000000e+00
  br i1 %2, label %10, label %3

3:                                                ; preds = %1
  %4 = fcmp reassoc nsz arcp contract afn olt float %0, 0.000000e+00
  %5 = tail call reassoc nsz arcp contract afn float @llvm.fabs.f32(float %0)
  %.06 = select nsz i1 %4, float %5, float %0
  %.0 = select i1 %4, ptr @.str.38, ptr @.str.37
  %6 = fpext reassoc nsz arcp contract afn float %.06 to double
  %7 = tail call ptr @dcgettext(ptr noundef null, ptr noundef nonnull @.str.15, i32 noundef 5) #27
  %8 = tail call ptr @dcgettext(ptr noundef null, ptr noundef nonnull %.0, i32 noundef 5) #27
  %9 = tail call noalias ptr (ptr, ...) @g_strdup_printf(ptr noundef nonnull @.str.14, double noundef %6, ptr noundef %7, ptr noundef %8) #27
  br label %10

10:                                               ; preds = %1, %3
  %.07 = phi ptr [ %9, %3 ], [ null, %1 ]
  ret ptr %.07
}